; Function Attrs: mustprogress uwtable
define dso_local void @_ZN22btBvhTriangleMeshShape9refitTreeERK9btVector3S2_(ptr noundef nonnull align 8 dereferenceable(109) %this, ptr noundef nonnull align 4 dereferenceable(16) %aabbMin, ptr noundef nonnull align 4 dereferenceable(16) %aabbMax) local_unnamed_addr #0 align 2 {
entry:
  %m_bvh = getelementptr inbounds i8, ptr %this, i64 80
  %0 = load ptr, ptr %m_bvh, align 8
  %m_meshInterface = getelementptr inbounds i8, ptr %this, i64 72
  %1 = load ptr, ptr %m_meshInterface, align 8
  tail call void @_ZN14btOptimizedBvh5refitEP23btStridingMeshInterfaceRK9btVector3S4_(ptr noundef nonnull align 8 dereferenceable(244) %0, ptr noundef %1, ptr noundef nonnull align 4 dereferenceable(16) %aabbMin, ptr noundef nonnull align 4 dereferenceable(16) %aabbMax)
  tail call void @_ZN19btTriangleMeshShape15recalcLocalAabbEv(ptr noundef nonnull align 8 dereferenceable(80) %this)
  ret void
}